target datalayout = "e-m:e-p270:32:32-p271:32:32-p272:64:64-i64:64-i128:128-f80:128-n8:16:32:64-S128"
target triple = "x86_64-pc-linux-gnu"

%struct.AVCodecContext = type { ptr, i32, i32, ptr, i32, i32, ptr, ptr, ptr, i64, i32, i32, ptr, i32, %struct.AVRational, %struct.AVRational, %struct.AVRational, i32, i32, i32, i32, i32, %struct.AVRational, i32, i32, i32, i32, i32, i32, i32, i32, i32, i32, i32, ptr, ptr, i32, float, float, float, float, float, float, float, float, float, i32, i32, i32, i32, i32, i32, i32, i32, i32, i32, i32, i32, ptr, ptr, ptr, i32, i32, i32, i32, i32, i32, i32, i32, i32, i32, %struct.AVChannelLayout, i32, i32, i32, i32, i32, i32, i32, i32, ptr, i32, i32, i32, float, float, i32, i32, i32, i32, i32, ptr, i64, i64, float, float, i32, i32, ptr, ptr, i32, i32, i32, i32, i32, ptr, ptr, ptr, ptr, i32, i32, [8 x i64], i32, i32, i32, i32, i32, i32, i32, ptr, ptr, i32, i32, i32, i32, i32, i32, i32, i32, i32, i32, ptr, ptr, i32, i32, ptr, ptr, ptr, ptr, i32, i32, i64, i32, i32, i64, ptr, i64, ptr, i32, ptr, i32 }
%struct.AVRational = type { i32, i32 }
%struct.AVChannelLayout = type { i32, i32, %union.anon.0, ptr }
%union.anon.0 = type { i64 }
%struct.SHQContext = type { %struct.BlockDSPContext, %struct.IDCTDSPContext, [64 x i8], [64 x i32], i32, i32, ptr, i32 }
%struct.BlockDSPContext = type { ptr, ptr, [2 x ptr] }
%struct.IDCTDSPContext = type { ptr, ptr, ptr, ptr, ptr, ptr, [64 x i8], i32, i32 }
%struct.AVPacket = type { ptr, i64, i64, ptr, i32, i32, i32, ptr, i32, i64, i64, ptr, ptr, %struct.AVRational }

@ff_zigzag_direct = external constant [64 x i8], align 16
@unscaled_quant_matrix = internal constant [64 x i8] c"\10\10\13\16\1A\1B\1D\22\10\10\16\18\1B\1D\22%\13\16\1A\1B\1D\22\22&\16\16\1A\1B\1D\22%(\16\1A\1B\1D #(0\1A\1B\1D #(0:\1A\1B\1D\22&.8E\1B\1D#&.8ES", align 16

; Function Attrs: nounwind uwtable
define internal void @compute_quant_matrix(ptr noundef %0, i32 noundef %1) #1 {
  %3 = alloca ptr, align 8
  %4 = alloca i32, align 4
  %5 = alloca i32, align 4
  store ptr %0, ptr %3, align 8, !tbaa !44
  store i32 %1, ptr %4, align 4, !tbaa !31
  call void @llvm.lifetime.start.p0(i64 4, ptr %5) #10
  store i32 0, ptr %5, align 4, !tbaa !31
  br label %6

6:                                                ; preds = %24, %2
  %7 = load i32, ptr %5, align 4, !tbaa !31
  %8 = icmp slt i32 %7, 64
  br i1 %8, label %9, label %27

9:                                                ; preds = %6
  %10 = load i32, ptr %5, align 4, !tbaa !31
  %11 = sext i32 %10 to i64
  %12 = getelementptr inbounds [64 x i8], ptr @ff_zigzag_direct, i64 0, i64 %11
  %13 = load i8, ptr %12, align 1, !tbaa !52
  %14 = zext i8 %13 to i64
  %15 = getelementptr inbounds nuw [64 x i8], ptr @unscaled_quant_matrix, i64 0, i64 %14
  %16 = load i8, ptr %15, align 1, !tbaa !52
  %17 = zext i8 %16 to i32
  %18 = load i32, ptr %4, align 4, !tbaa !31
  %19 = mul nsw i32 %17, %18
  %20 = load ptr, ptr %3, align 8, !tbaa !44
  %21 = load i32, ptr %5, align 4, !tbaa !31
  %22 = sext i32 %21 to i64
  %23 = getelementptr inbounds i32, ptr %20, i64 %22
  store i32 %19, ptr %23, align 4, !tbaa !31
  br label %24

24:                                               ; preds = %9
  %25 = load i32, ptr %5, align 4, !tbaa !31
  %26 = add nsw i32 %25, 1
  store i32 %26, ptr %5, align 4, !tbaa !31
  br label %6, !llvm.loop !67

27:                                               ; preds = %6
  call void @llvm.lifetime.end.p0(i64 4, ptr %5) #10
  ret void
}

; Function Attrs: nounwind uwtable
define internal i32 @speedhq_decode_frame(ptr noundef %0, ptr noundef %1, ptr noundef %2, ptr noundef %3) #1 {
  %5 = alloca i32, align 4
  %6 = alloca ptr, align 8
  %7 = alloca ptr, align 8
  %8 = alloca ptr, align 8
  %9 = alloca ptr, align 8
  %10 = alloca ptr, align 8
  %11 = alloca ptr, align 8
  %12 = alloca i32, align 4
  %13 = alloca i8, align 1
  %14 = alloca i32, align 4
  %15 = alloca i32, align 4
  store ptr %0, ptr %6, align 8, !tbaa !4
  store ptr %1, ptr %7, align 8, !tbaa !42
  store ptr %2, ptr %8, align 8, !tbaa !44
  store ptr %3, ptr %9, align 8, !tbaa !45
  call void @llvm.lifetime.start.p0(i64 8, ptr %10) #10
  %16 = load ptr, ptr %6, align 8, !tbaa !4
  %17 = getelementptr inbounds nuw %struct.AVCodecContext, ptr %16, i32 0, i32 6
  %18 = load ptr, ptr %17, align 8, !tbaa !9
  store ptr %18, ptr %10, align 8, !tbaa !29
  call void @llvm.lifetime.start.p0(i64 8, ptr %11) #10
  %19 = load ptr, ptr %9, align 8, !tbaa !45
  %20 = getelementptr inbounds nuw %struct.AVPacket, ptr %19, i32 0, i32 3
  %21 = load ptr, ptr %20, align 8, !tbaa !46
  store ptr %21, ptr %11, align 8, !tbaa !48
  call void @llvm.lifetime.start.p0(i64 4, ptr %12) #10
  %22 = load ptr, ptr %9, align 8, !tbaa !45
  %23 = getelementptr inbounds nuw %struct.AVPacket, ptr %22, i32 0, i32 4
  %24 = load i32, ptr %23, align 8, !tbaa !49
  store i32 %24, ptr %12, align 4, !tbaa !31
  call void @llvm.lifetime.start.p0(i64 1, ptr %13) #10
  call void @llvm.lifetime.start.p0(i64 4, ptr %14) #10
  %25 = load i32, ptr %12, align 4, !tbaa !31
  %26 = icmp slt i32 %25, 4
  br i1 %26, label %38, label %27

27:                                               ; preds = %4
  %28 = load ptr, ptr %6, align 8, !tbaa !4
  %29 = getelementptr inbounds nuw %struct.AVCodecContext, ptr %28, i32 0, i32 18
  %30 = load i32, ptr %29, align 8, !tbaa !50
  %31 = icmp slt i32 %30, 8
  br i1 %31, label %38, label %32

32:                                               ; preds = %27
  %33 = load ptr, ptr %6, align 8, !tbaa !4
  %34 = getelementptr inbounds nuw %struct.AVCodecContext, ptr %33, i32 0, i32 18
  %35 = load i32, ptr %34, align 8, !tbaa !50
  %36 = srem i32 %35, 8
  %37 = icmp ne i32 %36, 0
  br i1 %37, label %38, label %39

38:                                               ; preds = %32, %27, %4
  store i32 -1094995529, ptr %5, align 4
  store i32 1, ptr %15, align 4
  br label %167

39:                                               ; preds = %32
  %40 = load i32, ptr %12, align 4, !tbaa !31
  %41 = load ptr, ptr %6, align 8, !tbaa !4
  %42 = getelementptr inbounds nuw %struct.AVCodecContext, ptr %41, i32 0, i32 18
  %43 = load i32, ptr %42, align 8, !tbaa !50
  %44 = load ptr, ptr %6, align 8, !tbaa !4
  %45 = getelementptr inbounds nuw %struct.AVCodecContext, ptr %44, i32 0, i32 19
  %46 = load i32, ptr %45, align 4, !tbaa !51
  %47 = mul nsw i32 %43, %46
  %48 = sdiv i32 %47, 64
  %49 = sdiv i32 %48, 4
  %50 = icmp slt i32 %40, %49
  br i1 %50, label %51, label %52

51:                                               ; preds = %39
  store i32 -1094995529, ptr %5, align 4
  store i32 1, ptr %15, align 4
  br label %167

52:                                               ; preds = %39
  %53 = load ptr, ptr %11, align 8, !tbaa !48
  %54 = getelementptr inbounds i8, ptr %53, i64 0
  %55 = load i8, ptr %54, align 1, !tbaa !52
  store i8 %55, ptr %13, align 1, !tbaa !52
  %56 = load i8, ptr %13, align 1, !tbaa !52
  %57 = zext i8 %56 to i32
  %58 = icmp sge i32 %57, 100
  br i1 %58, label %59, label %60

59:                                               ; preds = %52
  store i32 -1094995529, ptr %5, align 4
  store i32 1, ptr %15, align 4
  br label %167

60:                                               ; preds = %52
  %61 = load ptr, ptr %6, align 8, !tbaa !4
  %62 = getelementptr inbounds nuw %struct.AVCodecContext, ptr %61, i32 0, i32 126
  %63 = load i32, ptr %62, align 4, !tbaa !53
  %64 = icmp sge i32 %63, 48
  br i1 %64, label %65, label %69

65:                                               ; preds = %60
  %66 = load ptr, ptr %9, align 8, !tbaa !45
  %67 = getelementptr inbounds nuw %struct.AVPacket, ptr %66, i32 0, i32 4
  %68 = load i32, ptr %67, align 8, !tbaa !49
  store i32 %68, ptr %5, align 4
  store i32 1, ptr %15, align 4
  br label %167

69:                                               ; preds = %60
  %70 = load ptr, ptr %10, align 8, !tbaa !29
  %71 = getelementptr inbounds nuw %struct.SHQContext, ptr %70, i32 0, i32 3
  %72 = getelementptr inbounds [64 x i32], ptr %71, i64 0, i64 0
  %73 = load i8, ptr %13, align 1, !tbaa !52
  %74 = zext i8 %73 to i32
  %75 = sub nsw i32 100, %74
  call void @compute_quant_matrix(ptr noundef %72, i32 noundef %75)
  %76 = load ptr, ptr %11, align 8, !tbaa !48
  %77 = getelementptr inbounds i8, ptr %76, i64 1
  %78 = getelementptr inbounds i8, ptr %77, i64 2
  %79 = load i8, ptr %78, align 1, !tbaa !52
  %80 = zext i8 %79 to i32
  %81 = shl i32 %80, 16
  %82 = load ptr, ptr %11, align 8, !tbaa !48
  %83 = getelementptr inbounds i8, ptr %82, i64 1
  %84 = getelementptr inbounds i8, ptr %83, i64 1
  %85 = load i8, ptr %84, align 1, !tbaa !52
  %86 = zext i8 %85 to i32
  %87 = shl i32 %86, 8
  %88 = or i32 %81, %87
  %89 = load ptr, ptr %11, align 8, !tbaa !48
  %90 = getelementptr inbounds i8, ptr %89, i64 1
  %91 = getelementptr inbounds i8, ptr %90, i64 0
  %92 = load i8, ptr %91, align 1, !tbaa !52
  %93 = zext i8 %92 to i32
  %94 = or i32 %88, %93
  %95 = load ptr, ptr %10, align 8, !tbaa !29
  %96 = getelementptr inbounds nuw %struct.SHQContext, ptr %95, i32 0, i32 7
  store i32 %94, ptr %96, align 8, !tbaa !54
  %97 = load ptr, ptr %10, align 8, !tbaa !29
  %98 = getelementptr inbounds nuw %struct.SHQContext, ptr %97, i32 0, i32 7
  %99 = load i32, ptr %98, align 8, !tbaa !54
  %100 = load i32, ptr %12, align 4, !tbaa !31
  %101 = sub nsw i32 %100, 3
  %102 = icmp uge i32 %99, %101
  br i1 %102, label %103, label %104

103:                                              ; preds = %69
  store i32 -1094995529, ptr %5, align 4
  store i32 1, ptr %15, align 4
  br label %167

104:                                              ; preds = %69
  %105 = load ptr, ptr %6, align 8, !tbaa !4
  %106 = getelementptr inbounds nuw %struct.AVCodecContext, ptr %105, i32 0, i32 18
  %107 = load i32, ptr %106, align 8, !tbaa !50
  %108 = add nsw i32 %107, 16
  %109 = sub nsw i32 %108, 1
  %110 = and i32 %109, -16
  %111 = load ptr, ptr %6, align 8, !tbaa !4
  %112 = getelementptr inbounds nuw %struct.AVCodecContext, ptr %111, i32 0, i32 20
  store i32 %110, ptr %112, align 8, !tbaa !55
  %113 = load ptr, ptr %6, align 8, !tbaa !4
  %114 = getelementptr inbounds nuw %struct.AVCodecContext, ptr %113, i32 0, i32 19
  %115 = load i32, ptr %114, align 4, !tbaa !51
  %116 = add nsw i32 %115, 16
  %117 = sub nsw i32 %116, 1
  %118 = and i32 %117, -16
  %119 = load ptr, ptr %6, align 8, !tbaa !4
  %120 = getelementptr inbounds nuw %struct.AVCodecContext, ptr %119, i32 0, i32 21
  store i32 %118, ptr %120, align 4, !tbaa !56
  %121 = load ptr, ptr %6, align 8, !tbaa !4
  %122 = load ptr, ptr %7, align 8, !tbaa !42
  %123 = call i32 @ff_thread_get_buffer(ptr noundef %121, ptr noundef %122, i32 noundef 0)
  store i32 %123, ptr %14, align 4, !tbaa !31
  %124 = icmp slt i32 %123, 0
  br i1 %124, label %125, label %127

125:                                              ; preds = %104
  %126 = load i32, ptr %14, align 4, !tbaa !31
  store i32 %126, ptr %5, align 4
  store i32 1, ptr %15, align 4
  br label %167

127:                                              ; preds = %104
  %128 = load ptr, ptr %9, align 8, !tbaa !45
  %129 = load ptr, ptr %10, align 8, !tbaa !29
  %130 = getelementptr inbounds nuw %struct.SHQContext, ptr %129, i32 0, i32 6
  store ptr %128, ptr %130, align 8, !tbaa !57
  %131 = load ptr, ptr %10, align 8, !tbaa !29
  %132 = getelementptr inbounds nuw %struct.SHQContext, ptr %131, i32 0, i32 7
  %133 = load i32, ptr %132, align 8, !tbaa !54
  %134 = icmp eq i32 %133, 4
  br i1 %134, label %142, label %135

135:                                              ; preds = %127
  %136 = load ptr, ptr %10, align 8, !tbaa !29
  %137 = getelementptr inbounds nuw %struct.SHQContext, ptr %136, i32 0, i32 7
  %138 = load i32, ptr %137, align 8, !tbaa !54
  %139 = load i32, ptr %12, align 4, !tbaa !31
  %140 = sub nsw i32 %139, 4
  %141 = icmp eq i32 %138, %140
  br i1 %141, label %142, label %153

142:                                              ; preds = %135, %127
  %143 = load ptr, ptr %6, align 8, !tbaa !4
  %144 = getelementptr inbounds nuw %struct.AVCodecContext, ptr %143, i32 0, i32 120
  %145 = load ptr, ptr %144, align 8, !tbaa !58
  %146 = load ptr, ptr %6, align 8, !tbaa !4
  %147 = load ptr, ptr %7, align 8, !tbaa !42
  %148 = call i32 %145(ptr noundef %146, ptr noundef @decode_slice_progressive, ptr noundef %147, ptr noundef null, i32 noundef 4)
  store i32 %148, ptr %14, align 4, !tbaa !31
  %149 = icmp slt i32 %148, 0
  br i1 %149, label %150, label %152

150:                                              ; preds = %142
  %151 = load i32, ptr %14, align 4, !tbaa !31
  store i32 %151, ptr %5, align 4
  store i32 1, ptr %15, align 4
  br label %167

152:                                              ; preds = %142
  br label %164

153:                                              ; preds = %135
  %154 = load ptr, ptr %6, align 8, !tbaa !4
  %155 = getelementptr inbounds nuw %struct.AVCodecContext, ptr %154, i32 0, i32 120
  %156 = load ptr, ptr %155, align 8, !tbaa !58
  %157 = load ptr, ptr %6, align 8, !tbaa !4
  %158 = load ptr, ptr %7, align 8, !tbaa !42
  %159 = call i32 %156(ptr noundef %157, ptr noundef @decode_slice_interlaced, ptr noundef %158, ptr noundef null, i32 noundef 8)
  store i32 %159, ptr %14, align 4, !tbaa !31
  %160 = icmp slt i32 %159, 0
  br i1 %160, label %161, label %163

161:                                              ; preds = %153
  %162 = load i32, ptr %14, align 4, !tbaa !31
  store i32 %162, ptr %5, align 4
  store i32 1, ptr %15, align 4
  br label %167

163:                                              ; preds = %153
  br label %164

164:                                              ; preds = %163, %152
  %165 = load ptr, ptr %8, align 8, !tbaa !44
  store i32 1, ptr %165, align 4, !tbaa !31
  %166 = load i32, ptr %12, align 4, !tbaa !31
  store i32 %166, ptr %5, align 4
  store i32 1, ptr %15, align 4
  br label %167

167:                                              ; preds = %164, %161, %150, %125, %103, %65, %59, %51, %38
  call void @llvm.lifetime.end.p0(i64 4, ptr %14) #10
  call void @llvm.lifetime.end.p0(i64 1, ptr %13) #10
  call void @llvm.lifetime.end.p0(i64 4, ptr %12) #10
  call void @llvm.lifetime.end.p0(i64 8, ptr %11) #10
  call void @llvm.lifetime.end.p0(i64 8, ptr %10) #10
  %168 = load i32, ptr %5, align 4
  ret i32 %168
}