; Function Attrs: nounwind uwtable
define internal range(i32 4, 0) i32 @speedhq_decode_frame(ptr noundef %0, ptr noundef %1, ptr noundef writeonly captures(none) %2, ptr noundef %3) #1 {
  %5 = getelementptr inbounds nuw i8, ptr %0, i64 32
  %6 = load ptr, ptr %5, align 8, !tbaa !4
  %7 = getelementptr inbounds nuw i8, ptr %3, i64 24
  %8 = load ptr, ptr %7, align 8, !tbaa !37
  %9 = getelementptr inbounds nuw i8, ptr %3, i64 32
  %10 = load i32, ptr %9, align 8, !tbaa !39
  %11 = icmp slt i32 %10, 4
  br i1 %11, label %79, label %12

12:                                               ; preds = %4
  %13 = getelementptr inbounds nuw i8, ptr %0, i64 112
  %14 = load i32, ptr %13, align 8, !tbaa !40
  %15 = icmp sgt i32 %14, 7
  %16 = and i32 %14, 7
  %.not = icmp eq i32 %16, 0
  %or.cond = and i1 %15, %.not
  br i1 %or.cond, label %17, label %79

17:                                               ; preds = %12
  %18 = getelementptr inbounds nuw i8, ptr %0, i64 116
  %19 = load i32, ptr %18, align 4, !tbaa !41
  %20 = mul nsw i32 %19, %14
  %21 = sdiv i32 %20, 256
  %22 = icmp slt i32 %10, %21
  br i1 %22, label %79, label %23

23:                                               ; preds = %17
  %24 = load i8, ptr %8, align 1, !tbaa !42
  %25 = zext i8 %24 to i32
  %26 = icmp ugt i8 %24, 99
  br i1 %26, label %79, label %27

27:                                               ; preds = %23
  %28 = getelementptr inbounds nuw i8, ptr %0, i64 708
  %29 = load i32, ptr %28, align 4, !tbaa !43
  %30 = icmp sgt i32 %29, 47
  br i1 %30, label %79, label %31

31:                                               ; preds = %27
  %32 = getelementptr inbounds nuw i8, ptr %6, i64 216
  %33 = sub nuw nsw i32 100, %25
  br label %34

34:                                               ; preds = %34, %31
  %indvars.iv.i = phi i64 [ 0, %31 ], [ %indvars.iv.next.i, %34 ]
  %35 = getelementptr inbounds nuw [64 x i8], ptr @ff_zigzag_direct, i64 0, i64 %indvars.iv.i
  %36 = load i8, ptr %35, align 1, !tbaa !42
  %37 = zext i8 %36 to i64
  %38 = getelementptr inbounds nuw [64 x i8], ptr @unscaled_quant_matrix, i64 0, i64 %37
  %39 = load i8, ptr %38, align 1, !tbaa !42
  %40 = zext i8 %39 to i32
  %41 = mul nuw nsw i32 %33, %40
  %42 = getelementptr inbounds nuw i32, ptr %32, i64 %indvars.iv.i
  store i32 %41, ptr %42, align 4, !tbaa !44
  %indvars.iv.next.i = add nuw nsw i64 %indvars.iv.i, 1
  %exitcond.not.i = icmp eq i64 %indvars.iv.next.i, 64
  br i1 %exitcond.not.i, label %compute_quant_matrix.exit, label %34, !llvm.loop !45

compute_quant_matrix.exit:                        ; preds = %34
  %43 = getelementptr inbounds nuw i8, ptr %8, i64 1
  %44 = getelementptr i8, ptr %8, i64 2
  %45 = load i16, ptr %44, align 1
  %46 = zext i16 %45 to i32
  %47 = shl nuw nsw i32 %46, 8
  %48 = load i8, ptr %43, align 1, !tbaa !42
  %49 = zext i8 %48 to i32
  %50 = or disjoint i32 %47, %49
  %51 = getelementptr inbounds nuw i8, ptr %6, i64 488
  store i32 %50, ptr %51, align 8, !tbaa !47
  %52 = add nsw i32 %10, -3
  %.not50 = icmp samesign ult i32 %50, %52
  br i1 %.not50, label %53, label %79

53:                                               ; preds = %compute_quant_matrix.exit
  %54 = load i32, ptr %13, align 8, !tbaa !40
  %55 = add nsw i32 %54, 15
  %56 = and i32 %55, -16
  %57 = getelementptr inbounds nuw i8, ptr %0, i64 120
  store i32 %56, ptr %57, align 8, !tbaa !48
  %58 = load i32, ptr %18, align 4, !tbaa !41
  %59 = add nsw i32 %58, 15
  %60 = and i32 %59, -16
  %61 = getelementptr inbounds nuw i8, ptr %0, i64 124
  store i32 %60, ptr %61, align 4, !tbaa !49
  %62 = tail call i32 @ff_thread_get_buffer(ptr noundef nonnull %0, ptr noundef %1, i32 noundef 0) #9
  %63 = icmp slt i32 %62, 0
  br i1 %63, label %79, label %64

64:                                               ; preds = %53
  %65 = getelementptr inbounds nuw i8, ptr %6, i64 480
  store ptr %3, ptr %65, align 8, !tbaa !50
  %66 = load i32, ptr %51, align 8, !tbaa !47
  %67 = icmp eq i32 %66, 4
  %68 = add nsw i32 %10, -4
  %69 = icmp eq i32 %66, %68
  %or.cond52 = select i1 %67, i1 true, i1 %69
  %70 = getelementptr inbounds nuw i8, ptr %0, i64 680
  %71 = load ptr, ptr %70, align 8, !tbaa !51
  br i1 %or.cond52, label %72, label %75

72:                                               ; preds = %64
  %73 = tail call i32 %71(ptr noundef nonnull %0, ptr noundef nonnull @decode_slice_progressive, ptr noundef %1, ptr noundef null, i32 noundef 4) #9
  %74 = icmp slt i32 %73, 0
  br i1 %74, label %79, label %78

75:                                               ; preds = %64
  %76 = tail call i32 %71(ptr noundef nonnull %0, ptr noundef nonnull @decode_slice_interlaced, ptr noundef %1, ptr noundef null, i32 noundef 8) #9
  %77 = icmp slt i32 %76, 0
  br i1 %77, label %79, label %78

78:                                               ; preds = %75, %72
  store i32 1, ptr %2, align 4, !tbaa !44
  br label %79

79:                                               ; preds = %75, %72, %53, %compute_quant_matrix.exit, %27, %23, %17, %4, %12, %78
  %.0 = phi i32 [ %10, %78 ], [ -1094995529, %12 ], [ -1094995529, %4 ], [ -1094995529, %17 ], [ -1094995529, %23 ], [ %10, %27 ], [ -1094995529, %compute_quant_matrix.exit ], [ %62, %53 ], [ %73, %72 ], [ %76, %75 ]
  ret i32 %.0
}